target datalayout = "e-m:e-p270:32:32-p271:32:32-p272:64:64-i64:64-i128:128-f80:128-n8:16:32:64-S128"
target triple = "x86_64-pc-linux-gnu"

; Function Attrs: nounwind uwtable
define internal void @ac3_downmix_5_to_2_symmetric_c_fixed(ptr noundef %0, ptr noundef %1, i32 noundef %2) #0 {
  %4 = alloca ptr, align 8
  %5 = alloca ptr, align 8
  %6 = alloca i32, align 4
  %7 = alloca i32, align 4
  %8 = alloca i64, align 8
  %9 = alloca i64, align 8
  %10 = alloca i16, align 2
  %11 = alloca i16, align 2
  %12 = alloca i16, align 2
  store ptr %0, ptr %4, align 8, !tbaa !9
  store ptr %1, ptr %5, align 8, !tbaa !12
  store i32 %2, ptr %6, align 4, !tbaa !14
  call void @llvm.lifetime.start.p0(i64 4, ptr %7) #6
  call void @llvm.lifetime.start.p0(i64 8, ptr %8) #6
  call void @llvm.lifetime.start.p0(i64 8, ptr %9) #6
  call void @llvm.lifetime.start.p0(i64 2, ptr %10) #6
  %13 = load ptr, ptr %5, align 8, !tbaa !12
  %14 = getelementptr inbounds ptr, ptr %13, i64 0
  %15 = load ptr, ptr %14, align 8, !tbaa !20
  %16 = getelementptr inbounds i16, ptr %15, i64 0
  %17 = load i16, ptr %16, align 2, !tbaa !22
  store i16 %17, ptr %10, align 2, !tbaa !22
  call void @llvm.lifetime.start.p0(i64 2, ptr %11) #6
  %18 = load ptr, ptr %5, align 8, !tbaa !12
  %19 = getelementptr inbounds ptr, ptr %18, i64 0
  %20 = load ptr, ptr %19, align 8, !tbaa !20
  %21 = getelementptr inbounds i16, ptr %20, i64 1
  %22 = load i16, ptr %21, align 2, !tbaa !22
  store i16 %22, ptr %11, align 2, !tbaa !22
  call void @llvm.lifetime.start.p0(i64 2, ptr %12) #6
  %23 = load ptr, ptr %5, align 8, !tbaa !12
  %24 = getelementptr inbounds ptr, ptr %23, i64 0
  %25 = load ptr, ptr %24, align 8, !tbaa !20
  %26 = getelementptr inbounds i16, ptr %25, i64 3
  %27 = load i16, ptr %26, align 2, !tbaa !22
  store i16 %27, ptr %12, align 2, !tbaa !22
  store i32 0, ptr %7, align 4, !tbaa !14
  br label %28

28:                                               ; preds = %123, %3
  %29 = load i32, ptr %7, align 4, !tbaa !14
  %30 = load i32, ptr %6, align 4, !tbaa !14
  %31 = icmp slt i32 %29, %30
  br i1 %31, label %32, label %126

32:                                               ; preds = %28
  %33 = load ptr, ptr %4, align 8, !tbaa !9
  %34 = getelementptr inbounds ptr, ptr %33, i64 0
  %35 = load ptr, ptr %34, align 8, !tbaa !24
  %36 = load i32, ptr %7, align 4, !tbaa !14
  %37 = sext i32 %36 to i64
  %38 = getelementptr inbounds i32, ptr %35, i64 %37
  %39 = load i32, ptr %38, align 4, !tbaa !14
  %40 = sext i32 %39 to i64
  %41 = load i16, ptr %10, align 2, !tbaa !22
  %42 = sext i16 %41 to i64
  %43 = mul nsw i64 %40, %42
  %44 = load ptr, ptr %4, align 8, !tbaa !9
  %45 = getelementptr inbounds ptr, ptr %44, i64 1
  %46 = load ptr, ptr %45, align 8, !tbaa !24
  %47 = load i32, ptr %7, align 4, !tbaa !14
  %48 = sext i32 %47 to i64
  %49 = getelementptr inbounds i32, ptr %46, i64 %48
  %50 = load i32, ptr %49, align 4, !tbaa !14
  %51 = sext i32 %50 to i64
  %52 = load i16, ptr %11, align 2, !tbaa !22
  %53 = sext i16 %52 to i64
  %54 = mul nsw i64 %51, %53
  %55 = add nsw i64 %43, %54
  %56 = load ptr, ptr %4, align 8, !tbaa !9
  %57 = getelementptr inbounds ptr, ptr %56, i64 3
  %58 = load ptr, ptr %57, align 8, !tbaa !24
  %59 = load i32, ptr %7, align 4, !tbaa !14
  %60 = sext i32 %59 to i64
  %61 = getelementptr inbounds i32, ptr %58, i64 %60
  %62 = load i32, ptr %61, align 4, !tbaa !14
  %63 = sext i32 %62 to i64
  %64 = load i16, ptr %12, align 2, !tbaa !22
  %65 = sext i16 %64 to i64
  %66 = mul nsw i64 %63, %65
  %67 = add nsw i64 %55, %66
  store i64 %67, ptr %8, align 8, !tbaa !26
  %68 = load ptr, ptr %4, align 8, !tbaa !9
  %69 = getelementptr inbounds ptr, ptr %68, i64 1
  %70 = load ptr, ptr %69, align 8, !tbaa !24
  %71 = load i32, ptr %7, align 4, !tbaa !14
  %72 = sext i32 %71 to i64
  %73 = getelementptr inbounds i32, ptr %70, i64 %72
  %74 = load i32, ptr %73, align 4, !tbaa !14
  %75 = sext i32 %74 to i64
  %76 = load i16, ptr %11, align 2, !tbaa !22
  %77 = sext i16 %76 to i64
  %78 = mul nsw i64 %75, %77
  %79 = load ptr, ptr %4, align 8, !tbaa !9
  %80 = getelementptr inbounds ptr, ptr %79, i64 2
  %81 = load ptr, ptr %80, align 8, !tbaa !24
  %82 = load i32, ptr %7, align 4, !tbaa !14
  %83 = sext i32 %82 to i64
  %84 = getelementptr inbounds i32, ptr %81, i64 %83
  %85 = load i32, ptr %84, align 4, !tbaa !14
  %86 = sext i32 %85 to i64
  %87 = load i16, ptr %10, align 2, !tbaa !22
  %88 = sext i16 %87 to i64
  %89 = mul nsw i64 %86, %88
  %90 = add nsw i64 %78, %89
  %91 = load ptr, ptr %4, align 8, !tbaa !9
  %92 = getelementptr inbounds ptr, ptr %91, i64 4
  %93 = load ptr, ptr %92, align 8, !tbaa !24
  %94 = load i32, ptr %7, align 4, !tbaa !14
  %95 = sext i32 %94 to i64
  %96 = getelementptr inbounds i32, ptr %93, i64 %95
  %97 = load i32, ptr %96, align 4, !tbaa !14
  %98 = sext i32 %97 to i64
  %99 = load i16, ptr %12, align 2, !tbaa !22
  %100 = sext i16 %99 to i64
  %101 = mul nsw i64 %98, %100
  %102 = add nsw i64 %90, %101
  store i64 %102, ptr %9, align 8, !tbaa !26
  %103 = load i64, ptr %8, align 8, !tbaa !26
  %104 = add nsw i64 %103, 2048
  %105 = ashr i64 %104, 12
  %106 = trunc i64 %105 to i32
  %107 = load ptr, ptr %4, align 8, !tbaa !9
  %108 = getelementptr inbounds ptr, ptr %107, i64 0
  %109 = load ptr, ptr %108, align 8, !tbaa !24
  %110 = load i32, ptr %7, align 4, !tbaa !14
  %111 = sext i32 %110 to i64
  %112 = getelementptr inbounds i32, ptr %109, i64 %111
  store i32 %106, ptr %112, align 4, !tbaa !14
  %113 = load i64, ptr %9, align 8, !tbaa !26
  %114 = add nsw i64 %113, 2048
  %115 = ashr i64 %114, 12
  %116 = trunc i64 %115 to i32
  %117 = load ptr, ptr %4, align 8, !tbaa !9
  %118 = getelementptr inbounds ptr, ptr %117, i64 1
  %119 = load ptr, ptr %118, align 8, !tbaa !24
  %120 = load i32, ptr %7, align 4, !tbaa !14
  %121 = sext i32 %120 to i64
  %122 = getelementptr inbounds i32, ptr %119, i64 %121
  store i32 %116, ptr %122, align 4, !tbaa !14
  br label %123

123:                                              ; preds = %32
  %124 = load i32, ptr %7, align 4, !tbaa !14
  %125 = add nsw i32 %124, 1
  store i32 %125, ptr %7, align 4, !tbaa !14
  br label %28, !llvm.loop !28

126:                                              ; preds = %28
  call void @llvm.lifetime.end.p0(i64 2, ptr %12) #6
  call void @llvm.lifetime.end.p0(i64 2, ptr %11) #6
  call void @llvm.lifetime.end.p0(i64 2, ptr %10) #6
  call void @llvm.lifetime.end.p0(i64 8, ptr %9) #6
  call void @llvm.lifetime.end.p0(i64 8, ptr %8) #6
  call void @llvm.lifetime.end.p0(i64 4, ptr %7) #6
  ret void
}