; Function Attrs: nofree norecurse nosync nounwind memory(readwrite, inaccessiblemem: none) uwtable
define internal void @ac3_downmix_5_to_2_symmetric_c_fixed(ptr noundef readonly captures(none) %0, ptr noundef readonly captures(none) %1, i32 noundef %2) #1 {
  %4 = icmp sgt i32 %2, 0
  br i1 %4, label %.lr.ph, label %._crit_edge

.lr.ph:                                           ; preds = %3
  %5 = load ptr, ptr %1, align 8, !tbaa !12
  %6 = getelementptr inbounds nuw i8, ptr %5, i64 6
  %7 = load i16, ptr %6, align 2, !tbaa !14
  %8 = getelementptr inbounds nuw i8, ptr %5, i64 2
  %9 = load i16, ptr %8, align 2, !tbaa !14
  %10 = load i16, ptr %5, align 2, !tbaa !14
  %11 = load ptr, ptr %0, align 8, !tbaa !16
  %12 = sext i16 %10 to i64
  %13 = getelementptr inbounds nuw i8, ptr %0, i64 8
  %14 = load ptr, ptr %13, align 8, !tbaa !16
  %15 = sext i16 %9 to i64
  %16 = getelementptr inbounds nuw i8, ptr %0, i64 24
  %17 = load ptr, ptr %16, align 8, !tbaa !16
  %18 = sext i16 %7 to i64
  %19 = getelementptr inbounds nuw i8, ptr %0, i64 16
  %20 = load ptr, ptr %19, align 8, !tbaa !16
  %21 = getelementptr inbounds nuw i8, ptr %0, i64 32
  %22 = load ptr, ptr %21, align 8, !tbaa !16
  %wide.trip.count = zext nneg i32 %2 to i64
  br label %23

23:                                               ; preds = %.lr.ph, %23
  %indvars.iv = phi i64 [ 0, %.lr.ph ], [ %indvars.iv.next, %23 ]
  %24 = getelementptr inbounds nuw i32, ptr %11, i64 %indvars.iv
  %25 = load i32, ptr %24, align 4, !tbaa !18
  %26 = sext i32 %25 to i64
  %27 = mul nsw i64 %26, %12
  %28 = getelementptr inbounds nuw i32, ptr %14, i64 %indvars.iv
  %29 = load i32, ptr %28, align 4, !tbaa !18
  %30 = sext i32 %29 to i64
  %31 = mul nsw i64 %30, %15
  %32 = getelementptr inbounds nuw i32, ptr %17, i64 %indvars.iv
  %33 = load i32, ptr %32, align 4, !tbaa !18
  %34 = sext i32 %33 to i64
  %35 = mul nsw i64 %34, %18
  %36 = getelementptr inbounds nuw i32, ptr %20, i64 %indvars.iv
  %37 = load i32, ptr %36, align 4, !tbaa !18
  %38 = sext i32 %37 to i64
  %39 = mul nsw i64 %38, %12
  %40 = getelementptr inbounds nuw i32, ptr %22, i64 %indvars.iv
  %41 = load i32, ptr %40, align 4, !tbaa !18
  %42 = sext i32 %41 to i64
  %43 = mul nsw i64 %42, %18
  %44 = add nsw i64 %31, 2048
  %45 = add nsw i64 %44, %27
  %46 = add nsw i64 %45, %35
  %47 = lshr i64 %46, 12
  %48 = trunc i64 %47 to i32
  store i32 %48, ptr %24, align 4, !tbaa !18
  %49 = add nsw i64 %44, %39
  %50 = add nsw i64 %49, %43
  %51 = lshr i64 %50, 12
  %52 = trunc i64 %51 to i32
  store i32 %52, ptr %28, align 4, !tbaa !18
  %indvars.iv.next = add nuw nsw i64 %indvars.iv, 1
  %exitcond.not = icmp eq i64 %indvars.iv.next, %wide.trip.count
  br i1 %exitcond.not, label %._crit_edge, label %23, !llvm.loop !24

._crit_edge:                                      ; preds = %23, %3
  ret void
}